; Function Attrs: mustprogress uwtable
define internal fastcc void @_ZN32pxrInternal_v0_24__pxrReserved__L18_GetUsdcFileFormatEv() unnamed_addr #1 personality ptr @__gxx_personality_v0 {
  %1 = alloca %"class.pxrInternal_v0_24__pxrReserved__::TfWeakPtr", align 8
  %2 = load atomic i8, ptr @_ZGVZN32pxrInternal_v0_24__pxrReserved__L18_GetUsdcFileFormatEvE10usdcFormat acquire, align 8
  %3 = icmp eq i8 %2, 0
  br i1 %3, label %4, label %21, !prof !17

4:                                                ; preds = %0
  %5 = tail call i32 @__cxa_guard_acquire(ptr nonnull @_ZGVZN32pxrInternal_v0_24__pxrReserved__L18_GetUsdcFileFormatEvE10usdcFormat) #19
  %.not = icmp eq i32 %5, 0
  br i1 %.not, label %21, label %6

6:                                                ; preds = %4
  %7 = invoke noundef ptr @_ZNK32pxrInternal_v0_24__pxrReserved__12TfStaticDataINS_39UsdUsdcFileFormatTokens_StaticTokenTypeENS_27Tf_StaticDataDefaultFactoryIS1_EEEptEv(ptr noundef nonnull align 8 dereferenceable(8) @_ZN32pxrInternal_v0_24__pxrReserved__23UsdUsdcFileFormatTokensE)
          to label %8 unwind label %22

8:                                                ; preds = %6
  invoke fastcc void @_ZN32pxrInternal_v0_24__pxrReserved__L14_GetFileFormatERKNS_7TfTokenE(ptr dead_on_unwind noalias nonnull writable align 8 %1, ptr noundef nonnull align 8 dereferenceable(8) %7)
          to label %9 unwind label %22

9:                                                ; preds = %8
  invoke void @_ZN32pxrInternal_v0_24__pxrReserved__14TfDynamic_castINS_9TfWeakPtrIKNS_17UsdUsdcFileFormatEEES1_KNS_13SdfFileFormatEEET_RKNS_15TfWeakPtrFacadeIT0_T1_EE(ptr dead_on_unwind nonnull writable sret(%"class.pxrInternal_v0_24__pxrReserved__::TfWeakPtr.18") align 8 @_ZZN32pxrInternal_v0_24__pxrReserved__L18_GetUsdcFileFormatEvE10usdcFormat, ptr noundef nonnull align 1 dereferenceable(1) %1)
          to label %10 unwind label %24

10:                                               ; preds = %9
  %11 = getelementptr inbounds nuw i8, ptr %1, i64 8
  %12 = load ptr, ptr %11, align 8
  %.not.i.i.i.i = icmp eq ptr %12, null
  br i1 %.not.i.i.i.i, label %_ZN32pxrInternal_v0_24__pxrReserved__9TfWeakPtrIKNS_13SdfFileFormatEED2Ev.exit, label %_ZN32pxrInternal_v0_24__pxrReserved__17Tf_RefPtr_Counter9RemoveRefEPKNS_9TfRefBaseE.exit.i.i.i

_ZN32pxrInternal_v0_24__pxrReserved__17Tf_RefPtr_Counter9RemoveRefEPKNS_9TfRefBaseE.exit.i.i.i: ; preds = %10
  %13 = getelementptr inbounds nuw i8, ptr %12, i64 8
  %14 = atomicrmw sub ptr %13, i32 1 release, align 4
  %15 = icmp eq i32 %14, 1
  br i1 %15, label %16, label %_ZN32pxrInternal_v0_24__pxrReserved__9TfWeakPtrIKNS_13SdfFileFormatEED2Ev.exit

16:                                               ; preds = %_ZN32pxrInternal_v0_24__pxrReserved__17Tf_RefPtr_Counter9RemoveRefEPKNS_9TfRefBaseE.exit.i.i.i
  %17 = load ptr, ptr %12, align 8
  %18 = getelementptr inbounds i8, ptr %17, i64 8
  %19 = load ptr, ptr %18, align 8
  call void %19(ptr noundef nonnull align 8 dereferenceable(12) %12) #19
  br label %_ZN32pxrInternal_v0_24__pxrReserved__9TfWeakPtrIKNS_13SdfFileFormatEED2Ev.exit

_ZN32pxrInternal_v0_24__pxrReserved__9TfWeakPtrIKNS_13SdfFileFormatEED2Ev.exit: ; preds = %10, %_ZN32pxrInternal_v0_24__pxrReserved__17Tf_RefPtr_Counter9RemoveRefEPKNS_9TfRefBaseE.exit.i.i.i, %16
  %20 = call i32 @__cxa_atexit(ptr nonnull @_ZN32pxrInternal_v0_24__pxrReserved__9TfWeakPtrIKNS_17UsdUsdcFileFormatEED2Ev, ptr nonnull @_ZZN32pxrInternal_v0_24__pxrReserved__L18_GetUsdcFileFormatEvE10usdcFormat, ptr nonnull @__dso_handle) #19
  call void @__cxa_guard_release(ptr nonnull @_ZGVZN32pxrInternal_v0_24__pxrReserved__L18_GetUsdcFileFormatEvE10usdcFormat) #19
  br label %21

21:                                               ; preds = %_ZN32pxrInternal_v0_24__pxrReserved__9TfWeakPtrIKNS_13SdfFileFormatEED2Ev.exit, %4, %0
  ret void

22:                                               ; preds = %8, %6
  %23 = landingpad { ptr, i32 }
          cleanup
  br label %_ZN32pxrInternal_v0_24__pxrReserved__9TfWeakPtrIKNS_13SdfFileFormatEED2Ev.exit5

24:                                               ; preds = %9
  %25 = landingpad { ptr, i32 }
          cleanup
  %26 = getelementptr inbounds nuw i8, ptr %1, i64 8
  %27 = load ptr, ptr %26, align 8
  %.not.i.i.i.i3 = icmp eq ptr %27, null
  br i1 %.not.i.i.i.i3, label %_ZN32pxrInternal_v0_24__pxrReserved__9TfWeakPtrIKNS_13SdfFileFormatEED2Ev.exit5, label %_ZN32pxrInternal_v0_24__pxrReserved__17Tf_RefPtr_Counter9RemoveRefEPKNS_9TfRefBaseE.exit.i.i.i4

_ZN32pxrInternal_v0_24__pxrReserved__17Tf_RefPtr_Counter9RemoveRefEPKNS_9TfRefBaseE.exit.i.i.i4: ; preds = %24
  %28 = getelementptr inbounds nuw i8, ptr %27, i64 8
  %29 = atomicrmw sub ptr %28, i32 1 release, align 4
  %30 = icmp eq i32 %29, 1
  br i1 %30, label %31, label %_ZN32pxrInternal_v0_24__pxrReserved__9TfWeakPtrIKNS_13SdfFileFormatEED2Ev.exit5

31:                                               ; preds = %_ZN32pxrInternal_v0_24__pxrReserved__17Tf_RefPtr_Counter9RemoveRefEPKNS_9TfRefBaseE.exit.i.i.i4
  %32 = load ptr, ptr %27, align 8
  %33 = getelementptr inbounds i8, ptr %32, i64 8
  %34 = load ptr, ptr %33, align 8
  call void %34(ptr noundef nonnull align 8 dereferenceable(12) %27) #19
  br label %_ZN32pxrInternal_v0_24__pxrReserved__9TfWeakPtrIKNS_13SdfFileFormatEED2Ev.exit5

_ZN32pxrInternal_v0_24__pxrReserved__9TfWeakPtrIKNS_13SdfFileFormatEED2Ev.exit5: ; preds = %31, %_ZN32pxrInternal_v0_24__pxrReserved__17Tf_RefPtr_Counter9RemoveRefEPKNS_9TfRefBaseE.exit.i.i.i4, %24, %22
  %.pn = phi { ptr, i32 } [ %23, %22 ], [ %25, %24 ], [ %25, %_ZN32pxrInternal_v0_24__pxrReserved__17Tf_RefPtr_Counter9RemoveRefEPKNS_9TfRefBaseE.exit.i.i.i4 ], [ %25, %31 ]
  call void @__cxa_guard_abort(ptr nonnull @_ZGVZN32pxrInternal_v0_24__pxrReserved__L18_GetUsdcFileFormatEvE10usdcFormat) #19
  resume { ptr, i32 } %.pn
}